; Function Attrs: nounwind uwtable
define internal fastcc range(i32 -901, 1) i32 @bufs_alloc_chain(ptr noundef captures(none) %0) unnamed_addr #1 {
  %2 = getelementptr inbounds nuw i8, ptr %0, i64 8
  %3 = load ptr, ptr %2, align 8, !tbaa !19
  %4 = load ptr, ptr %3, align 8, !tbaa !27
  %.not = icmp eq ptr %4, null
  br i1 %.not, label %6, label %5

5:                                                ; preds = %1
  store ptr %4, ptr %2, align 8, !tbaa !19
  br label %buf_chain_new.exit

6:                                                ; preds = %1
  %7 = getelementptr inbounds nuw i8, ptr %0, i64 32
  %8 = load i64, ptr %7, align 8, !tbaa !25
  %9 = getelementptr inbounds nuw i8, ptr %0, i64 40
  %10 = load i64, ptr %9, align 8, !tbaa !24
  %11 = icmp eq i64 %8, %10
  br i1 %11, label %buf_chain_new.exit, label %12

12:                                               ; preds = %6
  %13 = getelementptr inbounds nuw i8, ptr %0, i64 24
  %14 = load i64, ptr %13, align 8, !tbaa !23
  %15 = getelementptr inbounds nuw i8, ptr %0, i64 16
  %16 = load ptr, ptr %15, align 8, !tbaa !13
  %17 = tail call ptr @nghttp2_mem_malloc(ptr noundef %16, i64 noundef 48) #10
  %18 = icmp eq ptr %17, null
  br i1 %18, label %buf_chain_new.exit, label %19

19:                                               ; preds = %12
  %20 = getelementptr inbounds nuw i8, ptr %17, i64 8
  %21 = getelementptr inbounds nuw i8, ptr %17, i64 16
  %.not.i.not.i.i = icmp eq i64 %14, 0
  tail call void @llvm.memset.p0.i64(ptr noundef nonnull align 8 dereferenceable(48) %17, i8 0, i64 48, i1 false)
  br i1 %.not.i.not.i.i, label %44, label %22

22:                                               ; preds = %19
  %23 = tail call ptr @nghttp2_mem_realloc(ptr noundef %16, ptr noundef null, i64 noundef %14) #10
  %24 = icmp eq ptr %23, null
  br i1 %24, label %nghttp2_buf_init2.exit.i, label %25

25:                                               ; preds = %22
  %26 = getelementptr inbounds nuw i8, ptr %17, i64 24
  %27 = load ptr, ptr %26, align 8, !tbaa !3
  %28 = load ptr, ptr %20, align 8, !tbaa !9
  %29 = ptrtoint ptr %27 to i64
  %30 = ptrtoint ptr %28 to i64
  %31 = sub i64 %29, %30
  %32 = getelementptr inbounds i8, ptr %23, i64 %31
  %33 = getelementptr inbounds nuw i8, ptr %17, i64 32
  %34 = load ptr, ptr %33, align 8, !tbaa !10
  %35 = ptrtoint ptr %34 to i64
  %36 = sub i64 %35, %30
  %37 = getelementptr inbounds i8, ptr %23, i64 %36
  %38 = getelementptr inbounds nuw i8, ptr %17, i64 40
  %39 = load ptr, ptr %38, align 8, !tbaa !11
  %40 = ptrtoint ptr %39 to i64
  %41 = sub i64 %40, %30
  %42 = getelementptr inbounds i8, ptr %23, i64 %41
  store ptr %42, ptr %38, align 8, !tbaa !11
  store ptr %23, ptr %20, align 8, !tbaa !9
  %43 = getelementptr inbounds nuw i8, ptr %23, i64 %14
  store ptr %43, ptr %21, align 8, !tbaa !12
  br label %44

nghttp2_buf_init2.exit.i:                         ; preds = %22
  tail call void @nghttp2_mem_free(ptr noundef %16, ptr noundef nonnull %17) #10
  br label %buf_chain_new.exit

44:                                               ; preds = %25, %19
  %45 = phi ptr [ %37, %25 ], [ null, %19 ]
  %46 = phi ptr [ %32, %25 ], [ null, %19 ]
  %47 = load i64, ptr %9, align 8, !tbaa !24
  %48 = add i64 %47, 1
  store i64 %48, ptr %9, align 8, !tbaa !24
  %49 = load ptr, ptr %2, align 8, !tbaa !19
  store ptr %17, ptr %49, align 8, !tbaa !27
  store ptr %17, ptr %2, align 8, !tbaa !19
  %50 = getelementptr inbounds nuw i8, ptr %0, i64 56
  %51 = load i64, ptr %50, align 8, !tbaa !17
  %52 = getelementptr inbounds nuw i8, ptr %17, i64 24
  %53 = getelementptr inbounds nuw i8, ptr %46, i64 %51
  store ptr %53, ptr %52, align 8, !tbaa !20
  %54 = getelementptr inbounds nuw i8, ptr %17, i64 32
  %55 = getelementptr inbounds nuw i8, ptr %45, i64 %51
  store ptr %55, ptr %54, align 8, !tbaa !22
  br label %buf_chain_new.exit

buf_chain_new.exit:                               ; preds = %nghttp2_buf_init2.exit.i, %12, %6, %44, %5
  %.0 = phi i32 [ 0, %5 ], [ 0, %44 ], [ -502, %6 ], [ -901, %nghttp2_buf_init2.exit.i ], [ -901, %12 ]
  ret i32 %.0
}